target datalayout = "e-m:e-p270:32:32-p271:32:32-p272:64:64-i64:64-i128:128-f80:128-n8:16:32:64-S128"
target triple = "x86_64-pc-linux-gnu"

%class.MappingPrintSession = type { ptr, ptr }

@.str = private unnamed_addr constant [9 x i8] c"%10s: %s\00", align 1
@.str.4 = private unnamed_addr constant [8 x i8] c"CARDTBL\00", align 1
@.str.5 = private unnamed_addr constant [14 x i8] c"GC Card table\00", align 1
@.str.6 = private unnamed_addr constant [4 x i8] c"CDS\00", align 1
@.str.7 = private unnamed_addr constant [13 x i8] c"CDS archives\00", align 1
@.str.8 = private unnamed_addr constant [6 x i8] c"CLASS\00", align 1
@.str.9 = private unnamed_addr constant [12 x i8] c"Class Space\00", align 1
@.str.10 = private unnamed_addr constant [5 x i8] c"CODE\00", align 1
@.str.11 = private unnamed_addr constant [10 x i8] c"Code Heap\00", align 1
@.str.12 = private unnamed_addr constant [3 x i8] c"GC\00", align 1
@.str.13 = private unnamed_addr constant [31 x i8] c"GC support data (e.g. bitmaps)\00", align 1
@.str.14 = private unnamed_addr constant [7 x i8] c"INTERN\00", align 1
@.str.15 = private unnamed_addr constant [9 x i8] c"Internal\00", align 1
@.str.16 = private unnamed_addr constant [9 x i8] c"JAVAHEAP\00", align 1
@.str.17 = private unnamed_addr constant [10 x i8] c"Java Heap\00", align 1
@.str.18 = private unnamed_addr constant [4 x i8] c"JDK\00", align 1
@.str.19 = private unnamed_addr constant [41 x i8] c"allocated by JDK libraries other than VM\00", align 1
@.str.20 = private unnamed_addr constant [5 x i8] c"META\00", align 1
@.str.21 = private unnamed_addr constant [28 x i8] c"Metaspace nodes (non-class)\00", align 1
@.str.22 = private unnamed_addr constant [5 x i8] c"POLL\00", align 1
@.str.23 = private unnamed_addr constant [14 x i8] c"Polling pages\00", align 1
@.str.24 = private unnamed_addr constant [6 x i8] c"STACK\00", align 1
@.str.25 = private unnamed_addr constant [21 x i8] c"(known) Thread Stack\00", align 1
@.str.26 = private unnamed_addr constant [5 x i8] c"TEST\00", align 1
@.str.27 = private unnamed_addr constant [27 x i8] c"JVM internal test mappings\00", align 1

; Function Attrs: mustprogress nounwind uwtable
define hidden void @_ZNK19MappingPrintSession21print_nmt_flag_legendEv(ptr noundef nonnull align 8 dereferenceable(16) %0) #1 align 2 {
  %2 = alloca ptr, align 8
  store ptr %0, ptr %2, align 8
  %3 = load ptr, ptr %2, align 8
  %4 = getelementptr inbounds %class.MappingPrintSession, ptr %3, i32 0, i32 0
  %5 = load ptr, ptr %4, align 8
  %6 = call noundef nonnull align 8 dereferenceable(56) ptr @_ZN12outputStream6indentEv(ptr noundef nonnull align 8 dereferenceable(56) %5)
  %7 = getelementptr inbounds %class.MappingPrintSession, ptr %3, i32 0, i32 0
  %8 = load ptr, ptr %7, align 8
  call void (ptr, ptr, ...) @_ZN12outputStream8print_crEPKcz(ptr noundef nonnull align 8 dereferenceable(56) %8, ptr noundef @.str, ptr noundef @.str.4, ptr noundef @.str.5)
  %9 = getelementptr inbounds %class.MappingPrintSession, ptr %3, i32 0, i32 0
  %10 = load ptr, ptr %9, align 8
  %11 = call noundef nonnull align 8 dereferenceable(56) ptr @_ZN12outputStream6indentEv(ptr noundef nonnull align 8 dereferenceable(56) %10)
  %12 = getelementptr inbounds %class.MappingPrintSession, ptr %3, i32 0, i32 0
  %13 = load ptr, ptr %12, align 8
  call void (ptr, ptr, ...) @_ZN12outputStream8print_crEPKcz(ptr noundef nonnull align 8 dereferenceable(56) %13, ptr noundef @.str, ptr noundef @.str.6, ptr noundef @.str.7)
  %14 = getelementptr inbounds %class.MappingPrintSession, ptr %3, i32 0, i32 0
  %15 = load ptr, ptr %14, align 8
  %16 = call noundef nonnull align 8 dereferenceable(56) ptr @_ZN12outputStream6indentEv(ptr noundef nonnull align 8 dereferenceable(56) %15)
  %17 = getelementptr inbounds %class.MappingPrintSession, ptr %3, i32 0, i32 0
  %18 = load ptr, ptr %17, align 8
  call void (ptr, ptr, ...) @_ZN12outputStream8print_crEPKcz(ptr noundef nonnull align 8 dereferenceable(56) %18, ptr noundef @.str, ptr noundef @.str.8, ptr noundef @.str.9)
  %19 = getelementptr inbounds %class.MappingPrintSession, ptr %3, i32 0, i32 0
  %20 = load ptr, ptr %19, align 8
  %21 = call noundef nonnull align 8 dereferenceable(56) ptr @_ZN12outputStream6indentEv(ptr noundef nonnull align 8 dereferenceable(56) %20)
  %22 = getelementptr inbounds %class.MappingPrintSession, ptr %3, i32 0, i32 0
  %23 = load ptr, ptr %22, align 8
  call void (ptr, ptr, ...) @_ZN12outputStream8print_crEPKcz(ptr noundef nonnull align 8 dereferenceable(56) %23, ptr noundef @.str, ptr noundef @.str.10, ptr noundef @.str.11)
  %24 = getelementptr inbounds %class.MappingPrintSession, ptr %3, i32 0, i32 0
  %25 = load ptr, ptr %24, align 8
  %26 = call noundef nonnull align 8 dereferenceable(56) ptr @_ZN12outputStream6indentEv(ptr noundef nonnull align 8 dereferenceable(56) %25)
  %27 = getelementptr inbounds %class.MappingPrintSession, ptr %3, i32 0, i32 0
  %28 = load ptr, ptr %27, align 8
  call void (ptr, ptr, ...) @_ZN12outputStream8print_crEPKcz(ptr noundef nonnull align 8 dereferenceable(56) %28, ptr noundef @.str, ptr noundef @.str.12, ptr noundef @.str.13)
  %29 = getelementptr inbounds %class.MappingPrintSession, ptr %3, i32 0, i32 0
  %30 = load ptr, ptr %29, align 8
  %31 = call noundef nonnull align 8 dereferenceable(56) ptr @_ZN12outputStream6indentEv(ptr noundef nonnull align 8 dereferenceable(56) %30)
  %32 = getelementptr inbounds %class.MappingPrintSession, ptr %3, i32 0, i32 0
  %33 = load ptr, ptr %32, align 8
  call void (ptr, ptr, ...) @_ZN12outputStream8print_crEPKcz(ptr noundef nonnull align 8 dereferenceable(56) %33, ptr noundef @.str, ptr noundef @.str.14, ptr noundef @.str.15)
  %34 = getelementptr inbounds %class.MappingPrintSession, ptr %3, i32 0, i32 0
  %35 = load ptr, ptr %34, align 8
  %36 = call noundef nonnull align 8 dereferenceable(56) ptr @_ZN12outputStream6indentEv(ptr noundef nonnull align 8 dereferenceable(56) %35)
  %37 = getelementptr inbounds %class.MappingPrintSession, ptr %3, i32 0, i32 0
  %38 = load ptr, ptr %37, align 8
  call void (ptr, ptr, ...) @_ZN12outputStream8print_crEPKcz(ptr noundef nonnull align 8 dereferenceable(56) %38, ptr noundef @.str, ptr noundef @.str.16, ptr noundef @.str.17)
  %39 = getelementptr inbounds %class.MappingPrintSession, ptr %3, i32 0, i32 0
  %40 = load ptr, ptr %39, align 8
  %41 = call noundef nonnull align 8 dereferenceable(56) ptr @_ZN12outputStream6indentEv(ptr noundef nonnull align 8 dereferenceable(56) %40)
  %42 = getelementptr inbounds %class.MappingPrintSession, ptr %3, i32 0, i32 0
  %43 = load ptr, ptr %42, align 8
  call void (ptr, ptr, ...) @_ZN12outputStream8print_crEPKcz(ptr noundef nonnull align 8 dereferenceable(56) %43, ptr noundef @.str, ptr noundef @.str.18, ptr noundef @.str.19)
  %44 = getelementptr inbounds %class.MappingPrintSession, ptr %3, i32 0, i32 0
  %45 = load ptr, ptr %44, align 8
  %46 = call noundef nonnull align 8 dereferenceable(56) ptr @_ZN12outputStream6indentEv(ptr noundef nonnull align 8 dereferenceable(56) %45)
  %47 = getelementptr inbounds %class.MappingPrintSession, ptr %3, i32 0, i32 0
  %48 = load ptr, ptr %47, align 8
  call void (ptr, ptr, ...) @_ZN12outputStream8print_crEPKcz(ptr noundef nonnull align 8 dereferenceable(56) %48, ptr noundef @.str, ptr noundef @.str.20, ptr noundef @.str.21)
  %49 = getelementptr inbounds %class.MappingPrintSession, ptr %3, i32 0, i32 0
  %50 = load ptr, ptr %49, align 8
  %51 = call noundef nonnull align 8 dereferenceable(56) ptr @_ZN12outputStream6indentEv(ptr noundef nonnull align 8 dereferenceable(56) %50)
  %52 = getelementptr inbounds %class.MappingPrintSession, ptr %3, i32 0, i32 0
  %53 = load ptr, ptr %52, align 8
  call void (ptr, ptr, ...) @_ZN12outputStream8print_crEPKcz(ptr noundef nonnull align 8 dereferenceable(56) %53, ptr noundef @.str, ptr noundef @.str.22, ptr noundef @.str.23)
  %54 = getelementptr inbounds %class.MappingPrintSession, ptr %3, i32 0, i32 0
  %55 = load ptr, ptr %54, align 8
  %56 = call noundef nonnull align 8 dereferenceable(56) ptr @_ZN12outputStream6indentEv(ptr noundef nonnull align 8 dereferenceable(56) %55)
  %57 = getelementptr inbounds %class.MappingPrintSession, ptr %3, i32 0, i32 0
  %58 = load ptr, ptr %57, align 8
  call void (ptr, ptr, ...) @_ZN12outputStream8print_crEPKcz(ptr noundef nonnull align 8 dereferenceable(56) %58, ptr noundef @.str, ptr noundef @.str.24, ptr noundef @.str.25)
  %59 = getelementptr inbounds %class.MappingPrintSession, ptr %3, i32 0, i32 0
  %60 = load ptr, ptr %59, align 8
  %61 = call noundef nonnull align 8 dereferenceable(56) ptr @_ZN12outputStream6indentEv(ptr noundef nonnull align 8 dereferenceable(56) %60)
  %62 = getelementptr inbounds %class.MappingPrintSession, ptr %3, i32 0, i32 0
  %63 = load ptr, ptr %62, align 8
  call void (ptr, ptr, ...) @_ZN12outputStream8print_crEPKcz(ptr noundef nonnull align 8 dereferenceable(56) %63, ptr noundef @.str, ptr noundef @.str.26, ptr noundef @.str.27)
  ret void
}